; Function Attrs: nounwind uwtable
define internal noundef i32 @dissect_netb_session_alive(ptr noundef %0, ptr readnone captures(none) %1, i32 noundef %2, ptr noundef %3) #1 {
  %5 = add i32 %2, 12
  %6 = tail call zeroext i8 @tvb_get_guint8(ptr noundef %0, i32 noundef %5) #6
  %7 = load i32, ptr @hf_netb_remote_ses_no, align 4
  %8 = zext i8 %6 to i32
  %9 = tail call ptr @proto_tree_add_uint(ptr noundef %3, i32 noundef %7, ptr noundef %0, i32 noundef %5, i32 noundef 1, i32 noundef %8) #6
  %10 = add i32 %2, 13
  %11 = tail call zeroext i8 @tvb_get_guint8(ptr noundef %0, i32 noundef %10) #6
  %12 = load i32, ptr @hf_netb_local_ses_no, align 4
  %13 = zext i8 %11 to i32
  %14 = tail call ptr @proto_tree_add_uint(ptr noundef %3, i32 noundef %12, ptr noundef %0, i32 noundef %10, i32 noundef 1, i32 noundef %13) #6
  ret i32 0
}